target datalayout = "e-m:e-p270:32:32-p271:32:32-p272:64:64-i64:64-i128:128-f80:128-n8:16:32:64-S128"
target triple = "x86_64-pc-linux-gnu"

%"class.base::BasicStringPiece" = type { ptr, i64 }

; Function Attrs: mustprogress nounwind uwtable
define available_externally void @_ZN4base16BasicStringPieceINSt7__cxx1112basic_stringIcSt11char_traitsIcESaIcEEEE13remove_prefixEm(ptr noundef nonnull align 8 dereferenceable(16) %0, i64 noundef %1) #2 align 2 {
  %3 = alloca ptr, align 8
  %4 = alloca i64, align 8
  store ptr %0, ptr %3, align 8, !tbaa !36
  store i64 %1, ptr %4, align 8, !tbaa !19
  %5 = load ptr, ptr %3, align 8
  %6 = load i64, ptr %4, align 8, !tbaa !19
  %7 = getelementptr inbounds nuw %"class.base::BasicStringPiece", ptr %5, i32 0, i32 0
  %8 = load ptr, ptr %7, align 8, !tbaa !38
  %9 = getelementptr inbounds nuw i8, ptr %8, i64 %6
  store ptr %9, ptr %7, align 8, !tbaa !38
  %10 = load i64, ptr %4, align 8, !tbaa !19
  %11 = getelementptr inbounds nuw %"class.base::BasicStringPiece", ptr %5, i32 0, i32 1
  %12 = load i64, ptr %11, align 8, !tbaa !40
  %13 = sub i64 %12, %10
  store i64 %13, ptr %11, align 8, !tbaa !40
  ret void
}

; Function Attrs: mustprogress nounwind uwtable
define available_externally noundef signext i8 @_ZNK4base16BasicStringPieceINSt7__cxx1112basic_stringIcSt11char_traitsIcESaIcEEEEixEm(ptr noundef nonnull align 8 dereferenceable(16) %0, i64 noundef %1) #2 align 2 {
  %3 = alloca ptr, align 8
  %4 = alloca i64, align 8
  store ptr %0, ptr %3, align 8, !tbaa !36
  store i64 %1, ptr %4, align 8, !tbaa !19
  %5 = load ptr, ptr %3, align 8
  %6 = getelementptr inbounds nuw %"class.base::BasicStringPiece", ptr %5, i32 0, i32 0
  %7 = load ptr, ptr %6, align 8, !tbaa !38
  %8 = load i64, ptr %4, align 8, !tbaa !19
  %9 = getelementptr inbounds nuw i8, ptr %7, i64 %8
  %10 = load i8, ptr %9, align 1, !tbaa !66
  ret i8 %10
}

; Function Attrs: mustprogress nounwind uwtable
define available_externally noundef zeroext i1 @_ZNK4base16BasicStringPieceINSt7__cxx1112basic_stringIcSt11char_traitsIcESaIcEEEE5emptyEv(ptr noundef nonnull align 8 dereferenceable(16) %0) #2 align 2 {
  %2 = alloca ptr, align 8
  store ptr %0, ptr %2, align 8, !tbaa !36
  %3 = load ptr, ptr %2, align 8
  %4 = getelementptr inbounds nuw %"class.base::BasicStringPiece", ptr %3, i32 0, i32 1
  %5 = load i64, ptr %4, align 8, !tbaa !40
  %6 = icmp eq i64 %5, 0
  ret i1 %6
}

; Function Attrs: mustprogress uwtable
define noundef zeroext i1 @_ZN7logging16MatchVlogPatternERKN4base16BasicStringPieceINSt7__cxx1112basic_stringIcSt11char_traitsIcESaIcEEEEESA_(ptr noundef nonnull align 8 dereferenceable(16) %0, ptr noundef nonnull align 8 dereferenceable(16) %1) #0 {
  %3 = alloca i1, align 1
  %4 = alloca ptr, align 8
  %5 = alloca ptr, align 8
  %6 = alloca %"class.base::BasicStringPiece", align 8
  %7 = alloca %"class.base::BasicStringPiece", align 8
  %8 = alloca i32, align 4
  store ptr %0, ptr %4, align 8, !tbaa !36
  store ptr %1, ptr %5, align 8, !tbaa !36
  call void @llvm.lifetime.start.p0(i64 16, ptr %6) #14
  %9 = load ptr, ptr %5, align 8, !tbaa !36
  call void @llvm.memcpy.p0.p0.i64(ptr align 8 %6, ptr align 8 %9, i64 16, i1 false), !tbaa.struct !57
  call void @llvm.lifetime.start.p0(i64 16, ptr %7) #14
  %10 = load ptr, ptr %4, align 8, !tbaa !36
  call void @llvm.memcpy.p0.p0.i64(ptr align 8 %7, ptr align 8 %10, i64 16, i1 false), !tbaa.struct !57
  br label %11

11:                                               ; preds = %42, %2
  %12 = call noundef zeroext i1 @_ZNK4base16BasicStringPieceINSt7__cxx1112basic_stringIcSt11char_traitsIcESaIcEEEE5emptyEv(ptr noundef nonnull align 8 dereferenceable(16) %6)
  br i1 %12, label %19, label %13

13:                                               ; preds = %11
  %14 = call noundef zeroext i1 @_ZNK4base16BasicStringPieceINSt7__cxx1112basic_stringIcSt11char_traitsIcESaIcEEEE5emptyEv(ptr noundef nonnull align 8 dereferenceable(16) %7)
  br i1 %14, label %19, label %15

15:                                               ; preds = %13
  %16 = call noundef signext i8 @_ZNK4base16BasicStringPieceINSt7__cxx1112basic_stringIcSt11char_traitsIcESaIcEEEEixEm(ptr noundef nonnull align 8 dereferenceable(16) %6, i64 noundef 0)
  %17 = sext i8 %16 to i32
  %18 = icmp ne i32 %17, 42
  br label %19

19:                                               ; preds = %15, %13, %11
  %20 = phi i1 [ false, %13 ], [ false, %11 ], [ %18, %15 ]
  br i1 %20, label %21, label %43

21:                                               ; preds = %19
  %22 = call noundef signext i8 @_ZNK4base16BasicStringPieceINSt7__cxx1112basic_stringIcSt11char_traitsIcESaIcEEEEixEm(ptr noundef nonnull align 8 dereferenceable(16) %6, i64 noundef 0)
  %23 = sext i8 %22 to i32
  switch i32 %23, label %34 [
    i32 47, label %24
    i32 92, label %24
    i32 63, label %42
  ]

24:                                               ; preds = %21, %21
  %25 = call noundef signext i8 @_ZNK4base16BasicStringPieceINSt7__cxx1112basic_stringIcSt11char_traitsIcESaIcEEEEixEm(ptr noundef nonnull align 8 dereferenceable(16) %7, i64 noundef 0)
  %26 = sext i8 %25 to i32
  %27 = icmp ne i32 %26, 47
  br i1 %27, label %28, label %33

28:                                               ; preds = %24
  %29 = call noundef signext i8 @_ZNK4base16BasicStringPieceINSt7__cxx1112basic_stringIcSt11char_traitsIcESaIcEEEEixEm(ptr noundef nonnull align 8 dereferenceable(16) %7, i64 noundef 0)
  %30 = sext i8 %29 to i32
  %31 = icmp ne i32 %30, 92
  br i1 %31, label %32, label %33

32:                                               ; preds = %28
  store i1 false, ptr %3, align 1
  store i32 1, ptr %8, align 4
  br label %69

33:                                               ; preds = %28, %24
  br label %42

34:                                               ; preds = %21
  %35 = call noundef signext i8 @_ZNK4base16BasicStringPieceINSt7__cxx1112basic_stringIcSt11char_traitsIcESaIcEEEEixEm(ptr noundef nonnull align 8 dereferenceable(16) %6, i64 noundef 0)
  %36 = sext i8 %35 to i32
  %37 = call noundef signext i8 @_ZNK4base16BasicStringPieceINSt7__cxx1112basic_stringIcSt11char_traitsIcESaIcEEEEixEm(ptr noundef nonnull align 8 dereferenceable(16) %7, i64 noundef 0)
  %38 = sext i8 %37 to i32
  %39 = icmp ne i32 %36, %38
  br i1 %39, label %40, label %41

40:                                               ; preds = %34
  store i1 false, ptr %3, align 1
  store i32 1, ptr %8, align 4
  br label %69

41:                                               ; preds = %34
  br label %42

42:                                               ; preds = %41, %21, %33
  call void @_ZN4base16BasicStringPieceINSt7__cxx1112basic_stringIcSt11char_traitsIcESaIcEEEE13remove_prefixEm(ptr noundef nonnull align 8 dereferenceable(16) %6, i64 noundef 1)
  call void @_ZN4base16BasicStringPieceINSt7__cxx1112basic_stringIcSt11char_traitsIcESaIcEEEE13remove_prefixEm(ptr noundef nonnull align 8 dereferenceable(16) %7, i64 noundef 1)
  br label %11, !llvm.loop !63

43:                                               ; preds = %19
  %44 = call noundef zeroext i1 @_ZNK4base16BasicStringPieceINSt7__cxx1112basic_stringIcSt11char_traitsIcESaIcEEEE5emptyEv(ptr noundef nonnull align 8 dereferenceable(16) %6)
  br i1 %44, label %45, label %47

45:                                               ; preds = %43
  %46 = call noundef zeroext i1 @_ZNK4base16BasicStringPieceINSt7__cxx1112basic_stringIcSt11char_traitsIcESaIcEEEE5emptyEv(ptr noundef nonnull align 8 dereferenceable(16) %7)
  store i1 %46, ptr %3, align 1
  store i32 1, ptr %8, align 4
  br label %69

47:                                               ; preds = %43
  br label %48

48:                                               ; preds = %56, %47
  %49 = call noundef zeroext i1 @_ZNK4base16BasicStringPieceINSt7__cxx1112basic_stringIcSt11char_traitsIcESaIcEEEE5emptyEv(ptr noundef nonnull align 8 dereferenceable(16) %6)
  br i1 %49, label %54, label %50

50:                                               ; preds = %48
  %51 = call noundef signext i8 @_ZNK4base16BasicStringPieceINSt7__cxx1112basic_stringIcSt11char_traitsIcESaIcEEEEixEm(ptr noundef nonnull align 8 dereferenceable(16) %6, i64 noundef 0)
  %52 = sext i8 %51 to i32
  %53 = icmp eq i32 %52, 42
  br label %54

54:                                               ; preds = %50, %48
  %55 = phi i1 [ false, %48 ], [ %53, %50 ]
  br i1 %55, label %56, label %57

56:                                               ; preds = %54
  call void @_ZN4base16BasicStringPieceINSt7__cxx1112basic_stringIcSt11char_traitsIcESaIcEEEE13remove_prefixEm(ptr noundef nonnull align 8 dereferenceable(16) %6, i64 noundef 1)
  br label %48, !llvm.loop !64

57:                                               ; preds = %54
  %58 = call noundef zeroext i1 @_ZNK4base16BasicStringPieceINSt7__cxx1112basic_stringIcSt11char_traitsIcESaIcEEEE5emptyEv(ptr noundef nonnull align 8 dereferenceable(16) %6)
  br i1 %58, label %59, label %60

59:                                               ; preds = %57
  store i1 true, ptr %3, align 1
  store i32 1, ptr %8, align 4
  br label %69

60:                                               ; preds = %57
  br label %61

61:                                               ; preds = %67, %60
  %62 = call noundef zeroext i1 @_ZNK4base16BasicStringPieceINSt7__cxx1112basic_stringIcSt11char_traitsIcESaIcEEEE5emptyEv(ptr noundef nonnull align 8 dereferenceable(16) %7)
  %63 = xor i1 %62, true
  br i1 %63, label %64, label %68

64:                                               ; preds = %61
  %65 = call noundef zeroext i1 @_ZN7logging16MatchVlogPatternERKN4base16BasicStringPieceINSt7__cxx1112basic_stringIcSt11char_traitsIcESaIcEEEEESA_(ptr noundef nonnull align 8 dereferenceable(16) %7, ptr noundef nonnull align 8 dereferenceable(16) %6)
  br i1 %65, label %66, label %67

66:                                               ; preds = %64
  store i1 true, ptr %3, align 1
  store i32 1, ptr %8, align 4
  br label %69

67:                                               ; preds = %64
  call void @_ZN4base16BasicStringPieceINSt7__cxx1112basic_stringIcSt11char_traitsIcESaIcEEEE13remove_prefixEm(ptr noundef nonnull align 8 dereferenceable(16) %7, i64 noundef 1)
  br label %61, !llvm.loop !65

68:                                               ; preds = %61
  store i1 false, ptr %3, align 1
  store i32 1, ptr %8, align 4
  br label %69

69:                                               ; preds = %68, %66, %59, %45, %40, %32
  call void @llvm.lifetime.end.p0(i64 16, ptr %7) #14
  call void @llvm.lifetime.end.p0(i64 16, ptr %6) #14
  %70 = load i1, ptr %3, align 1
  ret i1 %70
}