; Function Attrs: mustprogress nofree nosync nounwind memory(read, argmem: readwrite, inaccessiblemem: none) uwtable
define noundef zeroext i1 @_ZN7logging16MatchVlogPatternERKN4base16BasicStringPieceINSt7__cxx1112basic_stringIcSt11char_traitsIcESaIcEEEEESA_(ptr noundef nonnull readonly align 8 captures(none) dereferenceable(16) %0, ptr noundef nonnull readonly align 8 captures(none) dereferenceable(16) %1) local_unnamed_addr #7 {
  %3 = alloca %"class.base::BasicStringPiece", align 8
  %4 = alloca %"class.base::BasicStringPiece", align 8
  call void @llvm.lifetime.start.p0(i64 16, ptr nonnull %3) #20
  call void @llvm.memcpy.p0.p0.i64(ptr noundef nonnull align 8 dereferenceable(16) %3, ptr noundef nonnull align 8 dereferenceable(16) %1, i64 16, i1 false), !tbaa.struct !45
  call void @llvm.lifetime.start.p0(i64 16, ptr nonnull %4) #20
  call void @llvm.memcpy.p0.p0.i64(ptr noundef nonnull align 8 dereferenceable(16) %4, ptr noundef nonnull align 8 dereferenceable(16) %0, i64 16, i1 false), !tbaa.struct !45
  %5 = getelementptr inbounds nuw i8, ptr %3, i64 8
  %.promoted = load i64, ptr %5, align 8, !tbaa !31
  %6 = icmp eq i64 %.promoted, 0
  %.phi.trans.insert = getelementptr inbounds nuw i8, ptr %4, i64 8
  %.pre = load i64, ptr %.phi.trans.insert, align 8, !tbaa !31
  br i1 %6, label %._crit_edge64, label %.lr.ph

.lr.ph:                                           ; preds = %2
  %.promoted18 = load ptr, ptr %4, align 8
  %.promoted14 = load ptr, ptr %3, align 8
  %7 = sub i64 %.promoted, %.pre
  %scevgep = getelementptr i8, ptr %.promoted14, i64 %.pre
  %scevgep57 = getelementptr i8, ptr %.promoted18, i64 %.pre
  %8 = sub i64 %.pre, %.promoted
  br label %9

9:                                                ; preds = %.lr.ph, %21
  %10 = phi i64 [ %.pre, %.lr.ph ], [ %25, %21 ]
  %11 = phi i64 [ %.promoted, %.lr.ph ], [ %23, %21 ]
  %12 = phi ptr [ %.promoted14, %.lr.ph ], [ %22, %21 ]
  %13 = phi ptr [ %.promoted18, %.lr.ph ], [ %24, %21 ]
  %14 = icmp eq i64 %10, 0
  br i1 %14, label %.lr.ph31.preheader, label %15

15:                                               ; preds = %9
  %16 = load i8, ptr %12, align 1, !tbaa !14
  switch i8 %16, label %19 [
    i8 42, label %.lr.ph31.preheader
    i8 47, label %17
    i8 92, label %17
    i8 63, label %21
  ]

17:                                               ; preds = %15, %15
  %18 = load i8, ptr %13, align 1, !tbaa !14
  switch i8 %18, label %.critedge2.thread [
    i8 47, label %21
    i8 92, label %21
  ]

19:                                               ; preds = %15
  %20 = load i8, ptr %13, align 1, !tbaa !14
  %.not7 = icmp eq i8 %16, %20
  br i1 %.not7, label %21, label %.critedge2.thread

21:                                               ; preds = %17, %17, %15, %19
  %22 = getelementptr inbounds nuw i8, ptr %12, i64 1
  %23 = add i64 %11, -1
  %24 = getelementptr inbounds nuw i8, ptr %13, i64 1
  %25 = add i64 %10, -1
  %26 = icmp eq i64 %23, 0
  br i1 %26, label %._crit_edge64, label %9, !llvm.loop !48

.lr.ph31.preheader:                               ; preds = %9, %15
  %.lcssa47 = phi i64 [ %11, %15 ], [ %7, %9 ]
  %.lcssa44 = phi ptr [ %12, %15 ], [ %scevgep, %9 ]
  %.promoted34 = phi ptr [ %13, %15 ], [ %scevgep57, %9 ]
  store i64 %10, ptr %.phi.trans.insert, align 8
  store i64 %.lcssa47, ptr %5, align 8
  store ptr %.lcssa44, ptr %3, align 8
  store ptr %.promoted34, ptr %4, align 8
  br label %.lr.ph31

._crit_edge64:                                    ; preds = %21, %2
  %27 = phi i64 [ %.pre, %2 ], [ %8, %21 ]
  %28 = icmp eq i64 %27, 0
  br label %.critedge2.thread

.lr.ph31:                                         ; preds = %.lr.ph31.preheader, %34
  %29 = phi i64 [ %36, %34 ], [ %.lcssa47, %.lr.ph31.preheader ]
  %30 = phi ptr [ %35, %34 ], [ %.lcssa44, %.lr.ph31.preheader ]
  %31 = load i8, ptr %30, align 1, !tbaa !14
  %32 = icmp eq i8 %31, 42
  br i1 %32, label %34, label %.critedge2.preheader

.critedge2.preheader:                             ; preds = %.lr.ph31
  store ptr %30, ptr %3, align 8
  %33 = icmp eq i64 %10, 0
  br i1 %33, label %.critedge2.thread, label %.lr.ph35

34:                                               ; preds = %.lr.ph31
  %35 = getelementptr inbounds nuw i8, ptr %30, i64 1
  %36 = add i64 %29, -1
  store i64 %36, ptr %5, align 8, !tbaa !31
  %37 = icmp eq i64 %36, 0
  br i1 %37, label %.critedge2.thread, label %.lr.ph31, !llvm.loop !49

.lr.ph35:                                         ; preds = %.critedge2.preheader, %.critedge2
  %38 = phi i64 [ %42, %.critedge2 ], [ %10, %.critedge2.preheader ]
  %39 = phi ptr [ %41, %.critedge2 ], [ %.promoted34, %.critedge2.preheader ]
  %40 = call noundef zeroext i1 @_ZN7logging16MatchVlogPatternERKN4base16BasicStringPieceINSt7__cxx1112basic_stringIcSt11char_traitsIcESaIcEEEEESA_(ptr noundef nonnull align 8 dereferenceable(16) %4, ptr noundef nonnull align 8 dereferenceable(16) %3)
  br i1 %40, label %.critedge2.thread, label %.critedge2

.critedge2:                                       ; preds = %.lr.ph35
  %41 = getelementptr inbounds nuw i8, ptr %39, i64 1
  store ptr %41, ptr %4, align 8, !tbaa !29
  %42 = add i64 %38, -1
  store i64 %42, ptr %.phi.trans.insert, align 8, !tbaa !31
  %43 = icmp eq i64 %42, 0
  br i1 %43, label %.critedge2.thread, label %.lr.ph35, !llvm.loop !50

.critedge2.thread:                                ; preds = %17, %19, %34, %.lr.ph35, %.critedge2, %.critedge2.preheader, %._crit_edge64
  %.0 = phi i1 [ %28, %._crit_edge64 ], [ false, %.critedge2.preheader ], [ %40, %.critedge2 ], [ %40, %.lr.ph35 ], [ true, %34 ], [ false, %19 ], [ false, %17 ]
  call void @llvm.lifetime.end.p0(i64 16, ptr nonnull %4) #20
  call void @llvm.lifetime.end.p0(i64 16, ptr nonnull %3) #20
  ret i1 %.0
}